target datalayout = "e-m:e-p270:32:32-p271:32:32-p272:64:64-i64:64-i128:128-f80:128-n8:16:32:64-S128"
target triple = "x86_64-pc-linux-gnu"

%struct._lv_chart_t = type { %struct._lv_obj_t, %struct.lv_ll_t, %struct.lv_ll_t, [2 x i32], [2 x i32], [2 x i32], [2 x i32], i32, i32, i32, i32, i8 }
%struct._lv_obj_t = type { ptr, ptr, ptr, ptr, ptr, %struct.lv_area_t, i32, i16, i16 }
%struct.lv_area_t = type { i32, i32, i32, i32 }
%struct.lv_ll_t = type { i32, ptr, ptr }
%struct._lv_chart_series_t = type { ptr, ptr, %struct.lv_color_t, i32, i8 }
%struct.lv_color_t = type { i8, i8, i8 }

; Function Attrs: nounwind uwtable
define void @lv_chart_refresh(ptr noundef %0) #0 {
  %2 = alloca ptr, align 8
  store ptr %0, ptr %2, align 8, !tbaa !3
  br label %3

3:                                                ; preds = %1
  br label %4

4:                                                ; preds = %3
  %5 = load ptr, ptr %2, align 8, !tbaa !3
  call void @lv_obj_invalidate(ptr noundef %5)
  ret void
}

; Function Attrs: nounwind uwtable
define void @lv_chart_set_point_count(ptr noundef %0, i32 noundef %1) #0 {
  %3 = alloca ptr, align 8
  %4 = alloca i32, align 4
  %5 = alloca ptr, align 8
  %6 = alloca i32, align 4
  %7 = alloca ptr, align 8
  store ptr %0, ptr %3, align 8, !tbaa !3
  store i32 %1, ptr %4, align 4, !tbaa !7
  br label %8

8:                                                ; preds = %2
  br label %9

9:                                                ; preds = %8
  call void @llvm.lifetime.start.p0(i64 8, ptr %5) #5
  %10 = load ptr, ptr %3, align 8, !tbaa !3
  store ptr %10, ptr %5, align 8, !tbaa !3
  %11 = load ptr, ptr %5, align 8, !tbaa !3
  %12 = getelementptr inbounds nuw %struct._lv_chart_t, ptr %11, i32 0, i32 10
  %13 = load i32, ptr %12, align 4, !tbaa !16
  %14 = load i32, ptr %4, align 4, !tbaa !7
  %15 = icmp eq i32 %13, %14
  br i1 %15, label %16, label %17

16:                                               ; preds = %9
  store i32 1, ptr %6, align 4
  br label %77

17:                                               ; preds = %9
  call void @llvm.lifetime.start.p0(i64 8, ptr %7) #5
  %18 = load i32, ptr %4, align 4, !tbaa !7
  %19 = icmp ult i32 %18, 1
  br i1 %19, label %20, label %21

20:                                               ; preds = %17
  store i32 1, ptr %4, align 4, !tbaa !7
  br label %21

21:                                               ; preds = %20, %17
  %22 = load ptr, ptr %5, align 8, !tbaa !3
  %23 = getelementptr inbounds nuw %struct._lv_chart_t, ptr %22, i32 0, i32 1
  %24 = call ptr @lv_ll_get_tail(ptr noundef %23)
  store ptr %24, ptr %7, align 8, !tbaa !3
  br label %25

25:                                               ; preds = %67, %21
  %26 = load ptr, ptr %7, align 8, !tbaa !3
  %27 = icmp ne ptr %26, null
  br i1 %27, label %28, label %72

28:                                               ; preds = %25
  %29 = load ptr, ptr %5, align 8, !tbaa !3
  %30 = getelementptr inbounds nuw %struct._lv_chart_t, ptr %29, i32 0, i32 11
  %31 = load i8, ptr %30, align 8
  %32 = and i8 %31, 7
  %33 = zext i8 %32 to i32
  %34 = icmp eq i32 %33, 3
  br i1 %34, label %35, label %50

35:                                               ; preds = %28
  %36 = load ptr, ptr %7, align 8, !tbaa !3
  %37 = getelementptr inbounds nuw %struct._lv_chart_series_t, ptr %36, i32 0, i32 4
  %38 = load i8, ptr %37, align 8
  %39 = lshr i8 %38, 1
  %40 = and i8 %39, 1
  %41 = zext i8 %40 to i32
  %42 = icmp ne i32 %41, 0
  br i1 %42, label %49, label %43

43:                                               ; preds = %35
  %44 = load ptr, ptr %3, align 8, !tbaa !3
  %45 = load ptr, ptr %7, align 8, !tbaa !3
  %46 = load i32, ptr %4, align 4, !tbaa !7
  %47 = load ptr, ptr %7, align 8, !tbaa !3
  %48 = getelementptr inbounds nuw %struct._lv_chart_series_t, ptr %47, i32 0, i32 0
  call void @new_points_alloc(ptr noundef %44, ptr noundef %45, i32 noundef %46, ptr noundef %48)
  br label %49

49:                                               ; preds = %43, %35
  br label %50

50:                                               ; preds = %49, %28
  %51 = load ptr, ptr %7, align 8, !tbaa !3
  %52 = getelementptr inbounds nuw %struct._lv_chart_series_t, ptr %51, i32 0, i32 4
  %53 = load i8, ptr %52, align 8
  %54 = lshr i8 %53, 2
  %55 = and i8 %54, 1
  %56 = zext i8 %55 to i32
  %57 = icmp ne i32 %56, 0
  br i1 %57, label %64, label %58

58:                                               ; preds = %50
  %59 = load ptr, ptr %3, align 8, !tbaa !3
  %60 = load ptr, ptr %7, align 8, !tbaa !3
  %61 = load i32, ptr %4, align 4, !tbaa !7
  %62 = load ptr, ptr %7, align 8, !tbaa !3
  %63 = getelementptr inbounds nuw %struct._lv_chart_series_t, ptr %62, i32 0, i32 1
  call void @new_points_alloc(ptr noundef %59, ptr noundef %60, i32 noundef %61, ptr noundef %63)
  br label %64

64:                                               ; preds = %58, %50
  %65 = load ptr, ptr %7, align 8, !tbaa !3
  %66 = getelementptr inbounds nuw %struct._lv_chart_series_t, ptr %65, i32 0, i32 3
  store i32 0, ptr %66, align 4, !tbaa !32
  br label %67

67:                                               ; preds = %64
  %68 = load ptr, ptr %5, align 8, !tbaa !3
  %69 = getelementptr inbounds nuw %struct._lv_chart_t, ptr %68, i32 0, i32 1
  %70 = load ptr, ptr %7, align 8, !tbaa !3
  %71 = call ptr @lv_ll_get_prev(ptr noundef %69, ptr noundef %70)
  store ptr %71, ptr %7, align 8, !tbaa !3
  br label %25, !llvm.loop !33

72:                                               ; preds = %25
  %73 = load i32, ptr %4, align 4, !tbaa !7
  %74 = load ptr, ptr %5, align 8, !tbaa !3
  %75 = getelementptr inbounds nuw %struct._lv_chart_t, ptr %74, i32 0, i32 10
  store i32 %73, ptr %75, align 4, !tbaa !16
  %76 = load ptr, ptr %3, align 8, !tbaa !3
  call void @lv_chart_refresh(ptr noundef %76)
  call void @llvm.lifetime.end.p0(i64 8, ptr %7) #5
  store i32 0, ptr %6, align 4
  br label %77

77:                                               ; preds = %72, %16
  call void @llvm.lifetime.end.p0(i64 8, ptr %5) #5
  %78 = load i32, ptr %6, align 4
  switch i32 %78, label %80 [
    i32 0, label %79
    i32 1, label %79
  ]

79:                                               ; preds = %77, %77
  ret void

80:                                               ; preds = %77
  unreachable
}