; Function Attrs: nounwind uwtable
define void @lv_chart_set_point_count(ptr noundef %0, i32 noundef %1) local_unnamed_addr #0 {
  %3 = getelementptr inbounds nuw i8, ptr %0, i64 156
  %4 = load i32, ptr %3, align 4, !tbaa !15
  %5 = icmp eq i32 %4, %1
  br i1 %5, label %28, label %6

6:                                                ; preds = %2
  %spec.store.select = tail call i32 @llvm.umax.i32(i32 %1, i32 1)
  %7 = getelementptr inbounds nuw i8, ptr %0, i64 64
  %8 = tail call ptr @lv_ll_get_tail(ptr noundef nonnull %7) #8
  %.not25 = icmp eq ptr %8, null
  br i1 %.not25, label %._crit_edge, label %.lr.ph

.lr.ph:                                           ; preds = %6
  %9 = getelementptr inbounds nuw i8, ptr %0, i64 160
  br label %10

10:                                               ; preds = %.lr.ph, %25
  %.026 = phi ptr [ %8, %.lr.ph ], [ %27, %25 ]
  %11 = load i8, ptr %9, align 8
  %12 = and i8 %11, 7
  %13 = icmp eq i8 %12, 3
  br i1 %13, label %14, label %19

14:                                               ; preds = %10
  %15 = getelementptr inbounds nuw i8, ptr %.026, i64 24
  %16 = load i8, ptr %15, align 8
  %17 = and i8 %16, 2
  %.not23 = icmp eq i8 %17, 0
  br i1 %.not23, label %18, label %19

18:                                               ; preds = %14
  tail call fastcc void @new_points_alloc(ptr noundef nonnull %0, ptr noundef %.026, i32 noundef %spec.store.select, ptr noundef %.026)
  br label %19

19:                                               ; preds = %14, %18, %10
  %20 = getelementptr inbounds nuw i8, ptr %.026, i64 24
  %21 = load i8, ptr %20, align 8
  %22 = and i8 %21, 4
  %.not24 = icmp eq i8 %22, 0
  br i1 %.not24, label %23, label %25

23:                                               ; preds = %19
  %24 = getelementptr inbounds nuw i8, ptr %.026, i64 8
  tail call fastcc void @new_points_alloc(ptr noundef nonnull %0, ptr noundef %.026, i32 noundef %spec.store.select, ptr noundef %24)
  br label %25

25:                                               ; preds = %23, %19
  %26 = getelementptr inbounds nuw i8, ptr %.026, i64 20
  store i32 0, ptr %26, align 4, !tbaa !66
  %27 = tail call ptr @lv_ll_get_prev(ptr noundef nonnull %7, ptr noundef nonnull %.026) #8
  %.not = icmp eq ptr %27, null
  br i1 %.not, label %._crit_edge, label %10, !llvm.loop !67

._crit_edge:                                      ; preds = %25, %6
  store i32 %spec.store.select, ptr %3, align 4, !tbaa !15
  tail call void @lv_obj_invalidate(ptr noundef nonnull %0) #8
  br label %28

28:                                               ; preds = %2, %._crit_edge
  ret void
}